target datalayout = "e-m:e-p270:32:32-p271:32:32-p272:64:64-i64:64-i128:128-f80:128-n8:16:32:64-S128"
target triple = "x86_64-pc-linux-gnu"

@.str.165 = private unnamed_addr constant [12 x i8] c"!$&'()*+,;=\00", align 1

; Function Attrs: nounwind uwtable
define internal ptr @end_of_path(ptr noundef %0, i32 noundef %1, i32 noundef %2) #0 {
  %4 = alloca ptr, align 8
  %5 = alloca ptr, align 8
  %6 = alloca i32, align 4
  %7 = alloca i32, align 4
  store ptr %0, ptr %5, align 8
  store i32 %1, ptr %6, align 4
  store i32 %2, ptr %7, align 4
  %8 = load i32, ptr %7, align 4
  %9 = and i32 %8, 1
  %10 = icmp ne i32 %9, 0
  br i1 %10, label %11, label %59

11:                                               ; preds = %3
  %12 = load i32, ptr %6, align 4
  switch i32 %12, label %57 [
    i32 0, label %13
    i32 1, label %35
    i32 2, label %52
  ]

13:                                               ; preds = %11
  br label %14

14:                                               ; preds = %31, %13
  %15 = load ptr, ptr %5, align 8
  %16 = load i8, ptr %15, align 1
  %17 = sext i8 %16 to i32
  %18 = icmp ne i32 %17, 0
  br i1 %18, label %19, label %29

19:                                               ; preds = %14
  %20 = load ptr, ptr %5, align 8
  %21 = load i8, ptr %20, align 1
  %22 = sext i8 %21 to i32
  %23 = icmp ne i32 %22, 35
  br i1 %23, label %24, label %29

24:                                               ; preds = %19
  %25 = load ptr, ptr %5, align 8
  %26 = load i8, ptr %25, align 1
  %27 = sext i8 %26 to i32
  %28 = icmp ne i32 %27, 63
  br label %29

29:                                               ; preds = %24, %19, %14
  %30 = phi i1 [ false, %19 ], [ false, %14 ], [ %28, %24 ]
  br i1 %30, label %31, label %34

31:                                               ; preds = %29
  %32 = load ptr, ptr %5, align 8
  %33 = getelementptr inbounds nuw i8, ptr %32, i32 1
  store ptr %33, ptr %5, align 8
  br label %14, !llvm.loop !35

34:                                               ; preds = %29
  br label %57

35:                                               ; preds = %11
  br label %36

36:                                               ; preds = %48, %35
  %37 = load ptr, ptr %5, align 8
  %38 = load i8, ptr %37, align 1
  %39 = sext i8 %38 to i32
  %40 = icmp ne i32 %39, 0
  br i1 %40, label %41, label %46

41:                                               ; preds = %36
  %42 = load ptr, ptr %5, align 8
  %43 = load i8, ptr %42, align 1
  %44 = sext i8 %43 to i32
  %45 = icmp ne i32 %44, 35
  br label %46

46:                                               ; preds = %41, %36
  %47 = phi i1 [ false, %36 ], [ %45, %41 ]
  br i1 %47, label %48, label %51

48:                                               ; preds = %46
  %49 = load ptr, ptr %5, align 8
  %50 = getelementptr inbounds nuw i8, ptr %49, i32 1
  store ptr %50, ptr %5, align 8
  br label %36, !llvm.loop !36

51:                                               ; preds = %46
  br label %57

52:                                               ; preds = %11
  %53 = load ptr, ptr %5, align 8
  %54 = call i64 @strlen(ptr noundef %53) #12
  %55 = load ptr, ptr %5, align 8
  %56 = getelementptr inbounds nuw i8, ptr %55, i64 %54
  store ptr %56, ptr %5, align 8
  br label %57

57:                                               ; preds = %11, %52, %51, %34
  %58 = load ptr, ptr %5, align 8
  store ptr %58, ptr %4, align 8
  br label %134

59:                                               ; preds = %3
  br label %60

60:                                               ; preds = %131, %59
  %61 = load ptr, ptr %5, align 8
  %62 = load i8, ptr %61, align 1
  %63 = icmp ne i8 %62, 0
  br i1 %63, label %64, label %132

64:                                               ; preds = %60
  %65 = load ptr, ptr %5, align 8
  %66 = load i8, ptr %65, align 1
  %67 = zext i8 %66 to i64
  %68 = getelementptr inbounds nuw [256 x i8], ptr @uri_chars, i64 0, i64 %67
  %69 = load i8, ptr %68, align 1
  %70 = sext i8 %69 to i32
  %71 = icmp ne i32 %70, 0
  br i1 %71, label %93, label %72

72:                                               ; preds = %64
  %73 = load ptr, ptr %5, align 8
  %74 = load i8, ptr %73, align 1
  %75 = sext i8 %74 to i32
  %76 = call ptr @strchr(ptr noundef @.str.165, i32 noundef %75) #12
  %77 = icmp ne ptr %76, null
  br i1 %77, label %93, label %78

78:                                               ; preds = %72
  %79 = load ptr, ptr %5, align 8
  %80 = load i8, ptr %79, align 1
  %81 = sext i8 %80 to i32
  %82 = icmp eq i32 %81, 58
  br i1 %82, label %93, label %83

83:                                               ; preds = %78
  %84 = load ptr, ptr %5, align 8
  %85 = load i8, ptr %84, align 1
  %86 = sext i8 %85 to i32
  %87 = icmp eq i32 %86, 64
  br i1 %87, label %93, label %88

88:                                               ; preds = %83
  %89 = load ptr, ptr %5, align 8
  %90 = load i8, ptr %89, align 1
  %91 = sext i8 %90 to i32
  %92 = icmp eq i32 %91, 47
  br i1 %92, label %93, label %96

93:                                               ; preds = %88, %83, %78, %72, %64
  %94 = load ptr, ptr %5, align 8
  %95 = getelementptr inbounds nuw i8, ptr %94, i32 1
  store ptr %95, ptr %5, align 8
  br label %131

96:                                               ; preds = %88
  %97 = load ptr, ptr %5, align 8
  %98 = load i8, ptr %97, align 1
  %99 = sext i8 %98 to i32
  %100 = icmp eq i32 %99, 37
  br i1 %100, label %101, label %116

101:                                              ; preds = %96
  %102 = load ptr, ptr %5, align 8
  %103 = getelementptr inbounds i8, ptr %102, i64 1
  %104 = load i8, ptr %103, align 1
  %105 = call i32 @EVUTIL_ISXDIGIT_(i8 noundef signext %104)
  %106 = icmp ne i32 %105, 0
  br i1 %106, label %107, label %116

107:                                              ; preds = %101
  %108 = load ptr, ptr %5, align 8
  %109 = getelementptr inbounds i8, ptr %108, i64 2
  %110 = load i8, ptr %109, align 1
  %111 = call i32 @EVUTIL_ISXDIGIT_(i8 noundef signext %110)
  %112 = icmp ne i32 %111, 0
  br i1 %112, label %113, label %116

113:                                              ; preds = %107
  %114 = load ptr, ptr %5, align 8
  %115 = getelementptr inbounds i8, ptr %114, i64 3
  store ptr %115, ptr %5, align 8
  br label %130

116:                                              ; preds = %107, %101, %96
  %117 = load ptr, ptr %5, align 8
  %118 = load i8, ptr %117, align 1
  %119 = sext i8 %118 to i32
  %120 = icmp eq i32 %119, 63
  br i1 %120, label %121, label %127

121:                                              ; preds = %116
  %122 = load i32, ptr %6, align 4
  %123 = icmp ne i32 %122, 0
  br i1 %123, label %124, label %127

124:                                              ; preds = %121
  %125 = load ptr, ptr %5, align 8
  %126 = getelementptr inbounds nuw i8, ptr %125, i32 1
  store ptr %126, ptr %5, align 8
  br label %129

127:                                              ; preds = %121, %116
  %128 = load ptr, ptr %5, align 8
  store ptr %128, ptr %4, align 8
  br label %134

129:                                              ; preds = %124
  br label %130

130:                                              ; preds = %129, %113
  br label %131

131:                                              ; preds = %130, %93
  br label %60, !llvm.loop !37

132:                                              ; preds = %60
  %133 = load ptr, ptr %5, align 8
  store ptr %133, ptr %4, align 8
  br label %134

134:                                              ; preds = %132, %127, %57
  %135 = load ptr, ptr %4, align 8
  ret ptr %135
}