; Function Attrs: nounwind uwtable
define internal fastcc nonnull ptr @end_of_path(ptr noundef nonnull readonly captures(ret: address, provenance) %0, i32 noundef range(i32 0, 3) %1, i32 noundef %2) unnamed_addr #0 {
  %4 = and i32 %2, 1
  %.not = icmp eq i32 %4, 0
  br i1 %.not, label %.preheader, label %25

.preheader:                                       ; preds = %3
  %5 = load i8, ptr %0, align 1
  %.not3655 = icmp eq i8 %5, 0
  br i1 %.not3655, label %.critedge, label %.lr.ph

.lr.ph:                                           ; preds = %.preheader
  %.not61 = icmp eq i32 %1, 0
  br i1 %.not61, label %.lr.ph.split.us, label %.lr.ph.split

.lr.ph.split.us:                                  ; preds = %.lr.ph, %22
  %6 = phi i8 [ %24, %22 ], [ %5, %.lr.ph ]
  %.356.us = phi ptr [ %23, %22 ], [ %0, %.lr.ph ]
  %7 = zext i8 %6 to i64
  %8 = getelementptr inbounds nuw [256 x i8], ptr @uri_chars, i64 0, i64 %7
  %9 = load i8, ptr %8, align 1
  %.not37.us = icmp eq i8 %9, 0
  br i1 %.not37.us, label %10, label %22

10:                                               ; preds = %.lr.ph.split.us
  %memchr.bounds.us = icmp ult i8 %6, 64
  %11 = shl nuw i64 1, %7
  %12 = and i64 %11, 2882338748320710657
  %memchr.bits.us = icmp ne i64 %12, 0
  %memchr38.not.not50.us = select i1 %memchr.bounds.us, i1 %memchr.bits.us, i1 false
  %13 = freeze i1 %memchr38.not.not50.us
  br i1 %13, label %22, label %switch.early.test.us

switch.early.test.us:                             ; preds = %10
  switch i8 %6, label %.critedge [
    i8 64, label %22
    i8 58, label %22
    i8 47, label %22
    i8 37, label %14
  ]

14:                                               ; preds = %switch.early.test.us
  %15 = getelementptr inbounds nuw i8, ptr %.356.us, i64 1
  %16 = load i8, ptr %15, align 1
  %17 = tail call i32 @EVUTIL_ISXDIGIT_(i8 noundef signext %16) #18
  %.not40.us = icmp eq i32 %17, 0
  br i1 %.not40.us, label %.critedge, label %18

18:                                               ; preds = %14
  %19 = getelementptr inbounds nuw i8, ptr %.356.us, i64 2
  %20 = load i8, ptr %19, align 1
  %21 = tail call i32 @EVUTIL_ISXDIGIT_(i8 noundef signext %20) #18
  %.not41.us = icmp eq i32 %21, 0
  br i1 %.not41.us, label %.critedge, label %22

22:                                               ; preds = %.lr.ph.split.us, %10, %switch.early.test.us, %switch.early.test.us, %switch.early.test.us, %18
  %.sink = phi i64 [ 3, %18 ], [ 1, %switch.early.test.us ], [ 1, %switch.early.test.us ], [ 1, %switch.early.test.us ], [ 1, %10 ], [ 1, %.lr.ph.split.us ]
  %23 = getelementptr inbounds nuw i8, ptr %.356.us, i64 %.sink
  %24 = load i8, ptr %23, align 1
  %.not36.us = icmp eq i8 %24, 0
  br i1 %.not36.us, label %.critedge, label %.lr.ph.split.us, !llvm.loop !39

25:                                               ; preds = %3
  switch i32 %1, label %default.unreachable66 [
    i32 0, label %.preheader51
    i32 1, label %.preheader53
    i32 2, label %32
  ]

.preheader51:                                     ; preds = %25, %27
  %.1 = phi ptr [ %28, %27 ], [ %0, %25 ]
  %26 = load i8, ptr %.1, align 1
  switch i8 %26, label %27 [
    i8 0, label %.critedge
    i8 35, label %.critedge
    i8 63, label %.critedge
  ]

27:                                               ; preds = %.preheader51
  %28 = getelementptr inbounds nuw i8, ptr %.1, i64 1
  br label %.preheader51, !llvm.loop !40

.preheader53:                                     ; preds = %25, %30
  %.2 = phi ptr [ %31, %30 ], [ %0, %25 ]
  %29 = load i8, ptr %.2, align 1
  switch i8 %29, label %30 [
    i8 0, label %.critedge
    i8 35, label %.critedge
  ]

30:                                               ; preds = %.preheader53
  %31 = getelementptr inbounds nuw i8, ptr %.2, i64 1
  br label %.preheader53, !llvm.loop !41

32:                                               ; preds = %25
  %33 = tail call i64 @strlen(ptr noundef nonnull dereferenceable(1) %0) #17
  %34 = getelementptr inbounds nuw i8, ptr %0, i64 %33
  br label %.critedge

default.unreachable66:                            ; preds = %25
  unreachable

.lr.ph.split:                                     ; preds = %.lr.ph, %54
  %35 = phi i8 [ %56, %54 ], [ %5, %.lr.ph ]
  %.356 = phi ptr [ %55, %54 ], [ %0, %.lr.ph ]
  %36 = zext i8 %35 to i64
  %37 = getelementptr inbounds nuw [256 x i8], ptr @uri_chars, i64 0, i64 %36
  %38 = load i8, ptr %37, align 1
  %.not37 = icmp eq i8 %38, 0
  br i1 %.not37, label %39, label %54

39:                                               ; preds = %.lr.ph.split
  %memchr.bounds = icmp ult i8 %35, 64
  %40 = shl nuw i64 1, %36
  %41 = and i64 %40, 2882338748320710657
  %memchr.bits = icmp ne i64 %41, 0
  %memchr38.not.not50 = select i1 %memchr.bounds, i1 %memchr.bits, i1 false
  %42 = freeze i1 %memchr38.not.not50
  br i1 %42, label %54, label %switch.early.test

switch.early.test:                                ; preds = %39
  switch i8 %35, label %51 [
    i8 64, label %54
    i8 58, label %54
    i8 47, label %54
    i8 37, label %43
  ]

43:                                               ; preds = %switch.early.test
  %44 = getelementptr inbounds nuw i8, ptr %.356, i64 1
  %45 = load i8, ptr %44, align 1
  %46 = tail call i32 @EVUTIL_ISXDIGIT_(i8 noundef signext %45) #18
  %.not40 = icmp eq i32 %46, 0
  br i1 %.not40, label %51, label %47

47:                                               ; preds = %43
  %48 = getelementptr inbounds nuw i8, ptr %.356, i64 2
  %49 = load i8, ptr %48, align 1
  %50 = tail call i32 @EVUTIL_ISXDIGIT_(i8 noundef signext %49) #18
  %.not41 = icmp eq i32 %50, 0
  br i1 %.not41, label %51, label %54

51:                                               ; preds = %switch.early.test, %47, %43
  %52 = load i8, ptr %.356, align 1
  %53 = icmp eq i8 %52, 63
  br i1 %53, label %54, label %.critedge

54:                                               ; preds = %51, %47, %.lr.ph.split, %39, %switch.early.test, %switch.early.test, %switch.early.test
  %.sink71 = phi i64 [ 1, %switch.early.test ], [ 1, %switch.early.test ], [ 1, %switch.early.test ], [ 1, %39 ], [ 1, %.lr.ph.split ], [ 3, %47 ], [ 1, %51 ]
  %55 = getelementptr inbounds nuw i8, ptr %.356, i64 %.sink71
  %56 = load i8, ptr %55, align 1
  %.not36 = icmp eq i8 %56, 0
  br i1 %.not36, label %.critedge, label %.lr.ph.split, !llvm.loop !39

.critedge:                                        ; preds = %.preheader53, %.preheader53, %.preheader51, %.preheader51, %.preheader51, %51, %54, %18, %14, %switch.early.test.us, %22, %.preheader, %32
  %.0 = phi ptr [ %34, %32 ], [ %0, %.preheader ], [ %.356.us, %18 ], [ %.356.us, %14 ], [ %.356.us, %switch.early.test.us ], [ %23, %22 ], [ %.356, %51 ], [ %55, %54 ], [ %.1, %.preheader51 ], [ %.1, %.preheader51 ], [ %.1, %.preheader51 ], [ %.2, %.preheader53 ], [ %.2, %.preheader53 ]
  ret ptr %.0
}